target datalayout = "e-m:e-p270:32:32-p271:32:32-p272:64:64-i64:64-i128:128-f80:128-n8:16:32:64-S128"
target triple = "x86_64-unknown-linux-gnu"

%"class.sat2goal::mc" = type { %class.model_converter.base, ptr, %"class.sat::model_converter", %class.ref, %class.ref_vector }
%class.model_converter.base = type <{ %class.converter.base, [4 x i8], ptr, i8 }>
%class.converter.base = type <{ ptr, i32 }>
%"class.sat::model_converter" = type { %class.vector, i32, %class.svector, ptr, %class.svector.1 }
%class.vector = type { ptr }
%class.svector = type { %class.vector.0 }
%class.vector.0 = type { ptr }
%class.svector.1 = type { %class.vector.2 }
%class.vector.2 = type { ptr }
%class.ref = type { ptr }
%class.ref_vector = type { %class.ref_vector_core }
%class.ref_vector_core = type { %class.ref_manager_wrapper, %class.ptr_vector }
%class.ref_manager_wrapper = type { ptr }
%class.ptr_vector = type { %class.vector.3 }
%class.vector.3 = type { ptr }

; Function Attrs: mustprogress nounwind uwtable
define linkonce_odr hidden noundef nonnull align 8 dereferenceable(80) ptr @_ZN3refI23generic_model_converterEdeEv(ptr noundef nonnull align 8 dereferenceable(8) %this) #4 comdat align 2 {
entry:
  %this.addr = alloca ptr, align 8
  store ptr %this, ptr %this.addr, align 8
  %this1 = load ptr, ptr %this.addr, align 8
  %m_ptr = getelementptr inbounds %class.ref, ptr %this1, i32 0, i32 0
  %0 = load ptr, ptr %m_ptr, align 8
  ret ptr %0
}

; Function Attrs: mustprogress nounwind uwtable
define linkonce_odr hidden noundef zeroext i1 @_ZNK3refI23generic_model_converterEcvbEv(ptr noundef nonnull align 8 dereferenceable(8) %this) #4 comdat align 2 {
entry:
  %this.addr = alloca ptr, align 8
  store ptr %this, ptr %this.addr, align 8
  %this1 = load ptr, ptr %this.addr, align 8
  %m_ptr = getelementptr inbounds %class.ref, ptr %this1, i32 0, i32 0
  %0 = load ptr, ptr %m_ptr, align 8
  %cmp = icmp ne ptr %0, null
  ret i1 %cmp
}

; Function Attrs: mustprogress uwtable
define hidden void @_ZN8sat2goal2mcclER7obj_refI4expr11ast_managerE(ptr noundef nonnull align 8 dereferenceable(104) %this, ptr noundef nonnull align 8 dereferenceable(16) %fml) unnamed_addr #5 align 2 {
entry:
  %this.addr = alloca ptr, align 8
  %fml.addr = alloca ptr, align 8
  store ptr %this, ptr %this.addr, align 8
  store ptr %fml, ptr %fml.addr, align 8
  %this1 = load ptr, ptr %this.addr, align 8
  call void @_ZN8sat2goal2mc9flush_gmcEv(ptr noundef nonnull align 8 dereferenceable(104) %this1)
  %m_gmc = getelementptr inbounds %"class.sat2goal::mc", ptr %this1, i32 0, i32 3
  %call = call noundef zeroext i1 @_ZNK3refI23generic_model_converterEcvbEv(ptr noundef nonnull align 8 dereferenceable(8) %m_gmc)
  br i1 %call, label %if.then, label %if.end

if.then:                                          ; preds = %entry
  %m_gmc2 = getelementptr inbounds %"class.sat2goal::mc", ptr %this1, i32 0, i32 3
  %call3 = call noundef nonnull align 8 dereferenceable(80) ptr @_ZN3refI23generic_model_converterEdeEv(ptr noundef nonnull align 8 dereferenceable(8) %m_gmc2)
  %0 = load ptr, ptr %fml.addr, align 8
  %vtable = load ptr, ptr %call3, align 8
  %vfn = getelementptr inbounds ptr, ptr %vtable, i64 6
  %1 = load ptr, ptr %vfn, align 8
  call void %1(ptr noundef nonnull align 8 dereferenceable(80) %call3, ptr noundef nonnull align 8 dereferenceable(16) %0)
  br label %if.end

if.end:                                           ; preds = %if.then, %entry
  ret void
}